; ModuleID = '24/2671.c'
source_filename = "24/2671.c"
target datalayout = "e-m:e-p270:32:32-p271:32:32-p272:64:64-i64:64-f80:128-n8:16:32:64-S128"
target triple = "x86_64-pc-linux-gnu"

@.str = private unnamed_addr constant [3 x i8] c"%d\00", align 1
@.str.1 = private unnamed_addr constant [3 x i8] c"%s\00", align 1
@.str.2 = private unnamed_addr constant [4 x i8] c"%s\0A\00", align 1

; Function Attrs: noinline nounwind uwtable
define dso_local i32 @main() #0 {
  %1 = alloca i32, align 4
  %2 = alloca i32, align 4
  %3 = alloca [201 x [40 x i8]], align 16
  %4 = alloca i32, align 4
  %5 = alloca [201 x i32], align 16
  %6 = alloca i32, align 4
  %7 = alloca i32, align 4
  %8 = alloca i32, align 4
  %9 = alloca i32, align 4
  %10 = alloca i32, align 4
  store i32 0, i32* %1, align 4
  %11 = bitcast [201 x [40 x i8]]* %3 to i8*
  call void @llvm.memset.p0i8.i64(i8* align 16 %11, i8 0, i64 8040, i1 false)
  %12 = call i32 (i8*, ...) @__isoc99_scanf(i8* getelementptr inbounds ([3 x i8], [3 x i8]* @.str, i64 0, i64 0), i32* %2)
  %13 = bitcast [201 x i32]* %5 to i8*
  call void @llvm.memset.p0i8.i64(i8* align 16 %13, i8 0, i64 804, i1 false)
  store i32 0, i32* %4, align 4
  br label %14

14:                                               ; preds = %25, %0
  %15 = load i32, i32* %4, align 4
  %16 = load i32, i32* %2, align 4
  %17 = icmp slt i32 %15, %16
  br i1 %17, label %18, label %28

18:                                               ; preds = %14
  %19 = load i32, i32* %4, align 4
  %20 = sext i32 %19 to i64
  %21 = getelementptr inbounds [201 x [40 x i8]], [201 x [40 x i8]]* %3, i64 0, i64 %20
  %22 = getelementptr inbounds [40 x i8], [40 x i8]* %21, i64 0, i64 0
  %23 = call i32 (i8*, ...) @__isoc99_scanf(i8* getelementptr inbounds ([3 x i8], [3 x i8]* @.str.1, i64 0, i64 0), i8* %22)
  %24 = call i32 @getchar()
  br label %25

25:                                               ; preds = %18
  %26 = load i32, i32* %4, align 4
  %27 = add nsw i32 %26, 1
  store i32 %27, i32* %4, align 4
  br label %14

28:                                               ; preds = %14
  store i32 0, i32* %7, align 4
  store i32 0, i32* %9, align 4
  store i32 30, i32* %10, align 4
  store i32 0, i32* %8, align 4
  br label %29

29:                                               ; preds = %67, %28
  %30 = load i32, i32* %8, align 4
  %31 = load i32, i32* %2, align 4
  %32 = icmp slt i32 %30, %31
  br i1 %32, label %33, label %70

33:                                               ; preds = %29
  %34 = load i32, i32* %8, align 4
  %35 = sext i32 %34 to i64
  %36 = getelementptr inbounds [201 x [40 x i8]], [201 x [40 x i8]]* %3, i64 0, i64 %35
  %37 = getelementptr inbounds [40 x i8], [40 x i8]* %36, i64 0, i64 0
  %38 = call i64 @strlen(i8* %37) #4
  %39 = trunc i64 %38 to i32
  %40 = load i32, i32* %8, align 4
  %41 = sext i32 %40 to i64
  %42 = getelementptr inbounds [201 x i32], [201 x i32]* %5, i64 0, i64 %41
  store i32 %39, i32* %42, align 4
  %43 = load i32, i32* %8, align 4
  %44 = sext i32 %43 to i64
  %45 = getelementptr inbounds [201 x i32], [201 x i32]* %5, i64 0, i64 %44
  %46 = load i32, i32* %45, align 4
  %47 = load i32, i32* %9, align 4
  %48 = icmp sge i32 %46, %47
  br i1 %48, label %49, label %54

49:                                               ; preds = %33
  %50 = load i32, i32* %8, align 4
  %51 = sext i32 %50 to i64
  %52 = getelementptr inbounds [201 x i32], [201 x i32]* %5, i64 0, i64 %51
  %53 = load i32, i32* %52, align 4
  store i32 %53, i32* %9, align 4
  br label %54

54:                                               ; preds = %49, %33
  %55 = load i32, i32* %8, align 4
  %56 = sext i32 %55 to i64
  %57 = getelementptr inbounds [201 x i32], [201 x i32]* %5, i64 0, i64 %56
  %58 = load i32, i32* %57, align 4
  %59 = load i32, i32* %10, align 4
  %60 = icmp sle i32 %58, %59
  br i1 %60, label %61, label %66

61:                                               ; preds = %54
  %62 = load i32, i32* %8, align 4
  %63 = sext i32 %62 to i64
  %64 = getelementptr inbounds [201 x i32], [201 x i32]* %5, i64 0, i64 %63
  %65 = load i32, i32* %64, align 4
  store i32 %65, i32* %10, align 4
  br label %66

66:                                               ; preds = %61, %54
  br label %67

67:                                               ; preds = %66
  %68 = load i32, i32* %8, align 4
  %69 = add nsw i32 %68, 1
  store i32 %69, i32* %8, align 4
  br label %29

70:                                               ; preds = %29
  store i32 0, i32* %8, align 4
  br label %71

71:                                               ; preds = %89, %70
  %72 = load i32, i32* %8, align 4
  %73 = load i32, i32* %2, align 4
  %74 = icmp slt i32 %72, %73
  br i1 %74, label %75, label %92

75:                                               ; preds = %71
  %76 = load i32, i32* %8, align 4
  %77 = sext i32 %76 to i64
  %78 = getelementptr inbounds [201 x i32], [201 x i32]* %5, i64 0, i64 %77
  %79 = load i32, i32* %78, align 4
  %80 = load i32, i32* %9, align 4
  %81 = icmp eq i32 %79, %80
  br i1 %81, label %82, label %88

82:                                               ; preds = %75
  %83 = load i32, i32* %8, align 4
  %84 = sext i32 %83 to i64
  %85 = getelementptr inbounds [201 x [40 x i8]], [201 x [40 x i8]]* %3, i64 0, i64 %84
  %86 = getelementptr inbounds [40 x i8], [40 x i8]* %85, i64 0, i64 0
  %87 = call i32 (i8*, ...) @printf(i8* getelementptr inbounds ([4 x i8], [4 x i8]* @.str.2, i64 0, i64 0), i8* %86)
  br label %92

88:                                               ; preds = %75
  br label %89

89:                                               ; preds = %88
  %90 = load i32, i32* %8, align 4
  %91 = add nsw i32 %90, 1
  store i32 %91, i32* %8, align 4
  br label %71

92:                                               ; preds = %82, %71
  store i32 0, i32* %8, align 4
  br label %93

93:                                               ; preds = %111, %92
  %94 = load i32, i32* %8, align 4
  %95 = load i32, i32* %2, align 4
  %96 = icmp slt i32 %94, %95
  br i1 %96, label %97, label %114

97:                                               ; preds = %93
  %98 = load i32, i32* %8, align 4
  %99 = sext i32 %98 to i64
  %100 = getelementptr inbounds [201 x i32], [201 x i32]* %5, i64 0, i64 %99
  %101 = load i32, i32* %100, align 4
  %102 = load i32, i32* %10, align 4
  %103 = icmp eq i32 %101, %102
  br i1 %103, label %104, label %110

104:                                              ; preds = %97
  %105 = load i32, i32* %8, align 4
  %106 = sext i32 %105 to i64
  %107 = getelementptr inbounds [201 x [40 x i8]], [201 x [40 x i8]]* %3, i64 0, i64 %106
  %108 = getelementptr inbounds [40 x i8], [40 x i8]* %107, i64 0, i64 0
  %109 = call i32 (i8*, ...) @printf(i8* getelementptr inbounds ([3 x i8], [3 x i8]* @.str.1, i64 0, i64 0), i8* %108)
  br label %114

110:                                              ; preds = %97
  br label %111

111:                                              ; preds = %110
  %112 = load i32, i32* %8, align 4
  %113 = add nsw i32 %112, 1
  store i32 %113, i32* %8, align 4
  br label %93

114:                                              ; preds = %104, %93
  %115 = load i32, i32* %1, align 4
  ret i32 %115
}

; Function Attrs: argmemonly nounwind willreturn
declare void @llvm.memset.p0i8.i64(i8* nocapture writeonly, i8, i64, i1 immarg) #1

declare dso_local i32 @__isoc99_scanf(i8*, ...) #2

declare dso_local i32 @getchar() #2

; Function Attrs: nounwind readonly
declare dso_local i64 @strlen(i8*) #3

declare dso_local i32 @printf(i8*, ...) #2


!llvm.module.flags = !{!0}
!llvm.ident = !{!1}

!0 = !{i32 1, !"wchar_size", i32 4}
!1 = !{!"clang version 10.0.0-4ubuntu1 "}
